target datalayout = "e-m:e-p270:32:32-p271:32:32-p272:64:64-i64:64-i128:128-f80:128-n8:16:32:64-S128"
target triple = "x86_64-pc-linux-gnu"

@__const._blend_Lab_scale.scale = private unnamed_addr constant [4 x float] [float 0x3F847AE140000000, float 7.812500e-03, float 7.812500e-03, float 1.000000e+00], align 16
@__const._blend_Lab_rescale.scale = private unnamed_addr constant [4 x float] [float 1.000000e+02, float 1.280000e+02, float 1.280000e+02, float 1.000000e+00], align 16

; Function Attrs: inlinehint nounwind uwtable
define internal void @_blend_Lab_rescale(ptr noundef %0, ptr noundef %1) #2 {
  %3 = alloca ptr, align 8
  %4 = alloca ptr, align 8
  %5 = alloca [4 x float], align 16
  %6 = alloca i64, align 8
  store ptr %0, ptr %3, align 8, !tbaa !11
  store ptr %1, ptr %4, align 8, !tbaa !11
  call void @llvm.lifetime.start.p0(i64 16, ptr %5) #8
  call void @llvm.memcpy.p0.p0.i64(ptr align 16 %5, ptr align 16 @__const._blend_Lab_rescale.scale, i64 16, i1 false)
  call void @llvm.lifetime.start.p0(i64 8, ptr %6) #8
  store i64 0, ptr %6, align 8, !tbaa !43
  br label %7

7:                                                ; preds = %23, %2
  %8 = load i64, ptr %6, align 8, !tbaa !43
  %9 = icmp ult i64 %8, 4
  br i1 %9, label %11, label %10

10:                                               ; preds = %7
  call void @llvm.lifetime.end.p0(i64 8, ptr %6) #8
  br label %26

11:                                               ; preds = %7
  %12 = load ptr, ptr %3, align 8, !tbaa !11
  %13 = load i64, ptr %6, align 8, !tbaa !43
  %14 = getelementptr inbounds nuw float, ptr %12, i64 %13
  %15 = load float, ptr %14, align 4, !tbaa !45
  %16 = load i64, ptr %6, align 8, !tbaa !43
  %17 = getelementptr inbounds nuw [4 x float], ptr %5, i64 0, i64 %16
  %18 = load float, ptr %17, align 4, !tbaa !45
  %19 = fmul reassoc nsz arcp contract afn float %15, %18
  %20 = load ptr, ptr %4, align 8, !tbaa !11
  %21 = load i64, ptr %6, align 8, !tbaa !43
  %22 = getelementptr inbounds nuw float, ptr %20, i64 %21
  store float %19, ptr %22, align 4, !tbaa !45
  br label %23

23:                                               ; preds = %11
  %24 = load i64, ptr %6, align 8, !tbaa !43
  %25 = add i64 %24, 1
  store i64 %25, ptr %6, align 8, !tbaa !43
  br label %7

26:                                               ; preds = %10
  call void @llvm.lifetime.end.p0(i64 16, ptr %5) #8
  ret void
}

; Function Attrs: inlinehint nounwind uwtable
define internal float @_CLAMP(float noundef %0, float noundef %1, float noundef %2) #2 {
  %4 = alloca float, align 4
  %5 = alloca float, align 4
  %6 = alloca float, align 4
  store float %0, ptr %4, align 4, !tbaa !45
  store float %1, ptr %5, align 4, !tbaa !45
  store float %2, ptr %6, align 4, !tbaa !45
  %7 = load float, ptr %4, align 4, !tbaa !45
  %8 = load float, ptr %5, align 4, !tbaa !45
  %9 = call reassoc nsz arcp contract afn float @llvm.maxnum.f32(float %7, float %8)
  %10 = load float, ptr %6, align 4, !tbaa !45
  %11 = call reassoc nsz arcp contract afn float @llvm.minnum.f32(float %9, float %10)
  ret float %11
}

; Function Attrs: inlinehint nounwind uwtable
define internal void @_blend_Lab_scale(ptr noundef %0, ptr noundef %1) #2 {
  %3 = alloca ptr, align 8
  %4 = alloca ptr, align 8
  %5 = alloca [4 x float], align 16
  %6 = alloca i64, align 8
  store ptr %0, ptr %3, align 8, !tbaa !11
  store ptr %1, ptr %4, align 8, !tbaa !11
  call void @llvm.lifetime.start.p0(i64 16, ptr %5) #8
  call void @llvm.memcpy.p0.p0.i64(ptr align 16 %5, ptr align 16 @__const._blend_Lab_scale.scale, i64 16, i1 false)
  call void @llvm.lifetime.start.p0(i64 8, ptr %6) #8
  store i64 0, ptr %6, align 8, !tbaa !43
  br label %7

7:                                                ; preds = %23, %2
  %8 = load i64, ptr %6, align 8, !tbaa !43
  %9 = icmp ult i64 %8, 4
  br i1 %9, label %11, label %10

10:                                               ; preds = %7
  call void @llvm.lifetime.end.p0(i64 8, ptr %6) #8
  br label %26

11:                                               ; preds = %7
  %12 = load ptr, ptr %3, align 8, !tbaa !11
  %13 = load i64, ptr %6, align 8, !tbaa !43
  %14 = getelementptr inbounds nuw float, ptr %12, i64 %13
  %15 = load float, ptr %14, align 4, !tbaa !45
  %16 = load i64, ptr %6, align 8, !tbaa !43
  %17 = getelementptr inbounds nuw [4 x float], ptr %5, i64 0, i64 %16
  %18 = load float, ptr %17, align 4, !tbaa !45
  %19 = fmul reassoc nsz arcp contract afn float %15, %18
  %20 = load ptr, ptr %4, align 8, !tbaa !11
  %21 = load i64, ptr %6, align 8, !tbaa !43
  %22 = getelementptr inbounds nuw float, ptr %20, i64 %21
  store float %19, ptr %22, align 4, !tbaa !45
  br label %23

23:                                               ; preds = %11
  %24 = load i64, ptr %6, align 8, !tbaa !43
  %25 = add i64 %24, 1
  store i64 %25, ptr %6, align 8, !tbaa !43
  br label %7

26:                                               ; preds = %10
  call void @llvm.lifetime.end.p0(i64 16, ptr %5) #8
  ret void
}

; Function Attrs: nounwind uwtable
define internal void @_blend_subtract(ptr noundef %0, ptr noundef %1, ptr noundef %2, ptr noalias noundef %3, i64 noundef %4, ptr noundef %5, ptr noundef %6) #0 {
  %8 = alloca ptr, align 8
  %9 = alloca ptr, align 8
  %10 = alloca ptr, align 8
  %11 = alloca ptr, align 8
  %12 = alloca i64, align 8
  %13 = alloca ptr, align 8
  %14 = alloca ptr, align 8
  %15 = alloca i64, align 8
  %16 = alloca i32, align 4
  %17 = alloca i64, align 8
  %18 = alloca float, align 4
  %19 = alloca [4 x float], align 16
  %20 = alloca [4 x float], align 16
  %21 = alloca i64, align 8
  store ptr %0, ptr %8, align 8, !tbaa !11
  store ptr %1, ptr %9, align 8, !tbaa !11
  store ptr %2, ptr %10, align 8, !tbaa !11
  store ptr %3, ptr %11, align 8, !tbaa !11
  store i64 %4, ptr %12, align 8, !tbaa !43
  store ptr %5, ptr %13, align 8, !tbaa !11
  store ptr %6, ptr %14, align 8, !tbaa !11
  call void @llvm.lifetime.start.p0(i64 8, ptr %15) #8
  store i64 0, ptr %15, align 8, !tbaa !43
  br label %22

22:                                               ; preds = %98, %7
  %23 = load i64, ptr %15, align 8, !tbaa !43
  %24 = load i64, ptr %12, align 8, !tbaa !43
  %25 = icmp ult i64 %23, %24
  br i1 %25, label %27, label %26

26:                                               ; preds = %22
  store i32 2, ptr %16, align 4
  call void @llvm.lifetime.end.p0(i64 8, ptr %15) #8
  br label %101

27:                                               ; preds = %22
  call void @llvm.lifetime.start.p0(i64 8, ptr %17) #8
  %28 = load i64, ptr %15, align 8, !tbaa !43
  %29 = mul i64 %28, 4
  store i64 %29, ptr %17, align 8, !tbaa !43
  call void @llvm.lifetime.start.p0(i64 4, ptr %18) #8
  %30 = load ptr, ptr %11, align 8, !tbaa !11
  %31 = load i64, ptr %15, align 8, !tbaa !43
  %32 = getelementptr inbounds nuw float, ptr %30, i64 %31
  %33 = load float, ptr %32, align 4, !tbaa !45
  store float %33, ptr %18, align 4, !tbaa !45
  call void @llvm.lifetime.start.p0(i64 16, ptr %19) #8
  call void @llvm.lifetime.start.p0(i64 16, ptr %20) #8
  %34 = load ptr, ptr %8, align 8, !tbaa !11
  %35 = load i64, ptr %17, align 8, !tbaa !43
  %36 = getelementptr inbounds nuw float, ptr %34, i64 %35
  %37 = getelementptr inbounds [4 x float], ptr %19, i64 0, i64 0
  call void @_blend_Lab_scale(ptr noundef %36, ptr noundef %37)
  %38 = load ptr, ptr %9, align 8, !tbaa !11
  %39 = load i64, ptr %17, align 8, !tbaa !43
  %40 = getelementptr inbounds nuw float, ptr %38, i64 %39
  %41 = getelementptr inbounds [4 x float], ptr %20, i64 0, i64 0
  call void @_blend_Lab_scale(ptr noundef %40, ptr noundef %41)
  call void @llvm.lifetime.start.p0(i64 8, ptr %21) #8
  store i64 0, ptr %21, align 8, !tbaa !43
  br label %42

42:                                               ; preds = %85, %27
  %43 = load i64, ptr %21, align 8, !tbaa !43
  %44 = icmp ult i64 %43, 4
  br i1 %44, label %46, label %45

45:                                               ; preds = %42
  store i32 5, ptr %16, align 4
  call void @llvm.lifetime.end.p0(i64 8, ptr %21) #8
  br label %88

46:                                               ; preds = %42
  %47 = load i64, ptr %21, align 8, !tbaa !43
  %48 = getelementptr inbounds nuw [4 x float], ptr %19, i64 0, i64 %47
  %49 = load float, ptr %48, align 4, !tbaa !45
  %50 = load float, ptr %18, align 4, !tbaa !45
  %51 = fsub reassoc nsz arcp contract afn float 1.000000e+00, %50
  %52 = fmul reassoc nsz arcp contract afn float %49, %51
  %53 = load i64, ptr %21, align 8, !tbaa !43
  %54 = getelementptr inbounds nuw [4 x float], ptr %20, i64 0, i64 %53
  %55 = load float, ptr %54, align 4, !tbaa !45
  %56 = load i64, ptr %21, align 8, !tbaa !43
  %57 = getelementptr inbounds nuw [4 x float], ptr %19, i64 0, i64 %56
  %58 = load float, ptr %57, align 4, !tbaa !45
  %59 = fadd reassoc nsz arcp contract afn float %55, %58
  %60 = load ptr, ptr %13, align 8, !tbaa !11
  %61 = load i64, ptr %21, align 8, !tbaa !43
  %62 = getelementptr inbounds nuw float, ptr %60, i64 %61
  %63 = load float, ptr %62, align 4, !tbaa !45
  %64 = load ptr, ptr %14, align 8, !tbaa !11
  %65 = load i64, ptr %21, align 8, !tbaa !43
  %66 = getelementptr inbounds nuw float, ptr %64, i64 %65
  %67 = load float, ptr %66, align 4, !tbaa !45
  %68 = fadd reassoc nsz arcp contract afn float %63, %67
  %69 = call reassoc nsz arcp contract afn float @llvm.fabs.f32(float %68)
  %70 = fsub reassoc nsz arcp contract afn float %59, %69
  %71 = load float, ptr %18, align 4, !tbaa !45
  %72 = fmul reassoc nsz arcp contract afn float %70, %71
  %73 = fadd reassoc nsz arcp contract afn float %52, %72
  %74 = load ptr, ptr %13, align 8, !tbaa !11
  %75 = load i64, ptr %21, align 8, !tbaa !43
  %76 = getelementptr inbounds nuw float, ptr %74, i64 %75
  %77 = load float, ptr %76, align 4, !tbaa !45
  %78 = load ptr, ptr %14, align 8, !tbaa !11
  %79 = load i64, ptr %21, align 8, !tbaa !43
  %80 = getelementptr inbounds nuw float, ptr %78, i64 %79
  %81 = load float, ptr %80, align 4, !tbaa !45
  %82 = call reassoc nsz arcp contract afn float @_CLAMP(float noundef %73, float noundef %77, float noundef %81)
  %83 = load i64, ptr %21, align 8, !tbaa !43
  %84 = getelementptr inbounds nuw [4 x float], ptr %20, i64 0, i64 %83
  store float %82, ptr %84, align 4, !tbaa !45
  br label %85

85:                                               ; preds = %46
  %86 = load i64, ptr %21, align 8, !tbaa !43
  %87 = add i64 %86, 1
  store i64 %87, ptr %21, align 8, !tbaa !43
  br label %42

88:                                               ; preds = %45
  %89 = getelementptr inbounds [4 x float], ptr %20, i64 0, i64 0
  %90 = load ptr, ptr %10, align 8, !tbaa !11
  %91 = load i64, ptr %17, align 8, !tbaa !43
  %92 = getelementptr inbounds nuw float, ptr %90, i64 %91
  call void @_blend_Lab_rescale(ptr noundef %89, ptr noundef %92)
  %93 = load float, ptr %18, align 4, !tbaa !45
  %94 = load ptr, ptr %10, align 8, !tbaa !11
  %95 = load i64, ptr %17, align 8, !tbaa !43
  %96 = add i64 %95, 3
  %97 = getelementptr inbounds nuw float, ptr %94, i64 %96
  store float %93, ptr %97, align 4, !tbaa !45
  call void @llvm.lifetime.end.p0(i64 16, ptr %20) #8
  call void @llvm.lifetime.end.p0(i64 16, ptr %19) #8
  call void @llvm.lifetime.end.p0(i64 4, ptr %18) #8
  call void @llvm.lifetime.end.p0(i64 8, ptr %17) #8
  br label %98

98:                                               ; preds = %88
  %99 = load i64, ptr %15, align 8, !tbaa !43
  %100 = add i64 %99, 1
  store i64 %100, ptr %15, align 8, !tbaa !43
  br label %22

101:                                              ; preds = %26
  ret void
}